target datalayout = "e-m:e-p270:32:32-p271:32:32-p272:64:64-i64:64-i128:128-f80:128-n8:16:32:64-S128"
target triple = "x86_64-pc-linux-gnu"

%class.ErrorHandler = type <{ i32, i32, i8, i8, i8, i8, i8, i8, [2 x i8] }>
%class.ScanTree = type { [1024 x ptr], i32, i32, ptr, i32, i8, i32, i32, i8, [2048 x i32], [2048 x i32], %class.StringList, %class.StringList, ptr, ptr, i8, i8, i64, [2048 x i32], ptr }
%class.StringList = type { %class.Array, i64, i64, [16 x i64], i64 }
%class.Array = type { ptr, i64, i64, i64 }
%class.uiMsgStore = type <{ [8 x ptr], [8 x i32], i32, i32, i32, [4 x i8] }>
%class.Array.5 = type { ptr, i64, i64, i64 }

@ErrHandler = external global %class.ErrorHandler, align 4
@.str.3 = private unnamed_addr constant [1 x i32] zeroinitializer, align 4

; Function Attrs: inlinehint mustprogress nounwind uwtable
define linkonce_odr void @_Z9uiMsgBaseR10uiMsgStore(ptr noundef nonnull align 8 dereferenceable(108) %0) #3 comdat {
  %2 = alloca ptr, align 8
  store ptr %0, ptr %2, align 8, !tbaa !76
  ret void
}

; Function Attrs: mustprogress nounwind uwtable
define linkonce_odr noundef nonnull align 8 dereferenceable(108) ptr @_ZN10uiMsgStorelsEPKw(ptr noundef nonnull align 8 dereferenceable(108) %0, ptr noundef %1) #4 comdat align 2 {
  %3 = alloca ptr, align 8
  %4 = alloca ptr, align 8
  store ptr %0, ptr %3, align 8, !tbaa !76
  store ptr %1, ptr %4, align 8, !tbaa !53
  %5 = load ptr, ptr %3, align 8
  %6 = getelementptr inbounds nuw %class.uiMsgStore, ptr %5, i32 0, i32 2
  %7 = load i32, ptr %6, align 8, !tbaa !79
  %8 = zext i32 %7 to i64
  %9 = icmp ult i64 %8, 8
  br i1 %9, label %10, label %18

10:                                               ; preds = %2
  %11 = load ptr, ptr %4, align 8, !tbaa !53
  %12 = getelementptr inbounds nuw %class.uiMsgStore, ptr %5, i32 0, i32 0
  %13 = getelementptr inbounds nuw %class.uiMsgStore, ptr %5, i32 0, i32 2
  %14 = load i32, ptr %13, align 8, !tbaa !79
  %15 = add i32 %14, 1
  store i32 %15, ptr %13, align 8, !tbaa !79
  %16 = zext i32 %14 to i64
  %17 = getelementptr inbounds nuw [8 x ptr], ptr %12, i64 0, i64 %16
  store ptr %11, ptr %17, align 8, !tbaa !53
  br label %18

18:                                               ; preds = %10, %2
  ret ptr %5
}

; Function Attrs: mustprogress uwtable
define linkonce_odr void @_Z9uiMsgBaseIRA2048_wJEEvR10uiMsgStoreOT_DpOT0_(ptr noundef nonnull align 8 dereferenceable(108) %0, ptr noundef nonnull align 4 dereferenceable(8192) %1) #0 comdat {
  %3 = alloca ptr, align 8
  %4 = alloca ptr, align 8
  store ptr %0, ptr %3, align 8, !tbaa !76
  store ptr %1, ptr %4, align 8, !tbaa !53
  %5 = load ptr, ptr %3, align 8, !tbaa !76
  %6 = load ptr, ptr %4, align 8, !tbaa !53
  %7 = getelementptr inbounds [2048 x i32], ptr %6, i64 0, i64 0
  %8 = call noundef nonnull align 8 dereferenceable(108) ptr @_ZN10uiMsgStorelsEPKw(ptr noundef nonnull align 8 dereferenceable(108) %5, ptr noundef %7)
  %9 = load ptr, ptr %3, align 8, !tbaa !76
  call void @_Z9uiMsgBaseR10uiMsgStore(ptr noundef nonnull align 8 dereferenceable(108) %9)
  ret void
}

; Function Attrs: mustprogress nounwind uwtable
define linkonce_odr void @_ZN10uiMsgStoreC2E14UIMESSAGE_CODE(ptr noundef nonnull align 8 dereferenceable(108) %0, i32 noundef %1) unnamed_addr #4 comdat align 2 {
  %3 = alloca ptr, align 8
  %4 = alloca i32, align 4
  %5 = alloca i32, align 4
  store ptr %0, ptr %3, align 8, !tbaa !76
  store i32 %1, ptr %4, align 4, !tbaa !67
  %6 = load ptr, ptr %3, align 8
  call void @llvm.lifetime.start.p0(i64 4, ptr %5) #12
  store i32 0, ptr %5, align 4, !tbaa !40
  br label %7

7:                                                ; preds = %17, %2
  %8 = load i32, ptr %5, align 4, !tbaa !40
  %9 = zext i32 %8 to i64
  %10 = icmp ult i64 %9, 8
  br i1 %10, label %12, label %11

11:                                               ; preds = %7
  call void @llvm.lifetime.end.p0(i64 4, ptr %5) #12
  br label %20

12:                                               ; preds = %7
  %13 = getelementptr inbounds nuw %class.uiMsgStore, ptr %6, i32 0, i32 0
  %14 = load i32, ptr %5, align 4, !tbaa !40
  %15 = zext i32 %14 to i64
  %16 = getelementptr inbounds nuw [8 x ptr], ptr %13, i64 0, i64 %15
  store ptr @.str.3, ptr %16, align 8, !tbaa !53
  br label %17

17:                                               ; preds = %12
  %18 = load i32, ptr %5, align 4, !tbaa !40
  %19 = add i32 %18, 1
  store i32 %19, ptr %5, align 4, !tbaa !40
  br label %7, !llvm.loop !78

20:                                               ; preds = %11
  %21 = getelementptr inbounds nuw %class.uiMsgStore, ptr %6, i32 0, i32 1
  %22 = getelementptr inbounds [8 x i32], ptr %21, i64 0, i64 0
  call void @llvm.memset.p0.i64(ptr align 8 %22, i8 0, i64 32, i1 false)
  %23 = getelementptr inbounds nuw %class.uiMsgStore, ptr %6, i32 0, i32 2
  store i32 0, ptr %23, align 8, !tbaa !79
  %24 = getelementptr inbounds nuw %class.uiMsgStore, ptr %6, i32 0, i32 3
  store i32 0, ptr %24, align 4, !tbaa !81
  %25 = load i32, ptr %4, align 4, !tbaa !67
  %26 = getelementptr inbounds nuw %class.uiMsgStore, ptr %6, i32 0, i32 4
  store i32 %25, ptr %26, align 8, !tbaa !82
  ret void
}

; Function Attrs: inlinehint mustprogress nounwind uwtable
define linkonce_odr noundef nonnull align 4 dereferenceable(4) ptr @_ZNK5ArrayIjEixEm(ptr noundef nonnull align 8 dereferenceable(32) %0, i64 noundef %1) #3 comdat align 2 {
  %3 = alloca ptr, align 8
  %4 = alloca i64, align 8
  store ptr %0, ptr %3, align 8, !tbaa !69
  store i64 %1, ptr %4, align 8, !tbaa !83
  %5 = load ptr, ptr %3, align 8
  %6 = getelementptr inbounds nuw %class.Array.5, ptr %5, i32 0, i32 0
  %7 = load ptr, ptr %6, align 8, !tbaa !89
  %8 = load i64, ptr %4, align 8, !tbaa !83
  %9 = getelementptr inbounds nuw i32, ptr %7, i64 %8
  ret ptr %9
}

; Function Attrs: inlinehint mustprogress nounwind uwtable
define linkonce_odr noundef i64 @_ZN5ArrayIjE4SizeEv(ptr noundef nonnull align 8 dereferenceable(32) %0) #3 comdat align 2 {
  %2 = alloca ptr, align 8
  store ptr %0, ptr %2, align 8, !tbaa !69
  %3 = load ptr, ptr %2, align 8
  %4 = getelementptr inbounds nuw %class.Array.5, ptr %3, i32 0, i32 1
  %5 = load i64, ptr %4, align 8, !tbaa !84
  ret i64 %5
}

; Function Attrs: mustprogress uwtable
define linkonce_odr void @_ZN5ArrayIjE3AddEm(ptr noundef nonnull align 8 dereferenceable(32) %0, i64 noundef %1) #0 comdat align 2 {
  %3 = alloca ptr, align 8
  %4 = alloca i64, align 8
  %5 = alloca i64, align 8
  %6 = alloca i64, align 8
  %7 = alloca ptr, align 8
  store ptr %0, ptr %3, align 8, !tbaa !69
  store i64 %1, ptr %4, align 8, !tbaa !83
  %8 = load ptr, ptr %3, align 8
  %9 = load i64, ptr %4, align 8, !tbaa !83
  %10 = getelementptr inbounds nuw %class.Array.5, ptr %8, i32 0, i32 1
  %11 = load i64, ptr %10, align 8, !tbaa !84
  %12 = add i64 %11, %9
  store i64 %12, ptr %10, align 8, !tbaa !84
  %13 = getelementptr inbounds nuw %class.Array.5, ptr %8, i32 0, i32 1
  %14 = load i64, ptr %13, align 8, !tbaa !84
  %15 = getelementptr inbounds nuw %class.Array.5, ptr %8, i32 0, i32 2
  %16 = load i64, ptr %15, align 8, !tbaa !87
  %17 = icmp ugt i64 %14, %16
  br i1 %17, label %18, label %63

18:                                               ; preds = %2
  %19 = getelementptr inbounds nuw %class.Array.5, ptr %8, i32 0, i32 3
  %20 = load i64, ptr %19, align 8, !tbaa !88
  %21 = icmp ne i64 %20, 0
  br i1 %21, label %22, label %31

22:                                               ; preds = %18
  %23 = getelementptr inbounds nuw %class.Array.5, ptr %8, i32 0, i32 1
  %24 = load i64, ptr %23, align 8, !tbaa !84
  %25 = getelementptr inbounds nuw %class.Array.5, ptr %8, i32 0, i32 3
  %26 = load i64, ptr %25, align 8, !tbaa !88
  %27 = icmp ugt i64 %24, %26
  br i1 %27, label %28, label %31

28:                                               ; preds = %22
  %29 = getelementptr inbounds nuw %class.Array.5, ptr %8, i32 0, i32 3
  %30 = load i64, ptr %29, align 8, !tbaa !88
  call void (ptr, ptr, ...) @_ZN12ErrorHandler13GeneralErrMsgEPKwz(ptr noundef nonnull align 4 dereferenceable(14) @ErrHandler, ptr noundef @.str.4, i64 noundef %30)
  call void @_ZN12ErrorHandler11MemoryErrorEv(ptr noundef nonnull align 4 dereferenceable(14) @ErrHandler)
  br label %31

31:                                               ; preds = %28, %22, %18
  call void @llvm.lifetime.start.p0(i64 8, ptr %5) #12
  %32 = getelementptr inbounds nuw %class.Array.5, ptr %8, i32 0, i32 2
  %33 = load i64, ptr %32, align 8, !tbaa !87
  %34 = getelementptr inbounds nuw %class.Array.5, ptr %8, i32 0, i32 2
  %35 = load i64, ptr %34, align 8, !tbaa !87
  %36 = udiv i64 %35, 4
  %37 = add i64 %33, %36
  %38 = add i64 %37, 32
  store i64 %38, ptr %5, align 8, !tbaa !83
  call void @llvm.lifetime.start.p0(i64 8, ptr %6) #12
  %39 = getelementptr inbounds nuw %class.Array.5, ptr %8, i32 0, i32 1
  %40 = load i64, ptr %39, align 8, !tbaa !84
  %41 = load i64, ptr %5, align 8, !tbaa !83
  %42 = icmp ugt i64 %40, %41
  br i1 %42, label %43, label %46

43:                                               ; preds = %31
  %44 = getelementptr inbounds nuw %class.Array.5, ptr %8, i32 0, i32 1
  %45 = load i64, ptr %44, align 8, !tbaa !84
  br label %48

46:                                               ; preds = %31
  %47 = load i64, ptr %5, align 8, !tbaa !83
  br label %48

48:                                               ; preds = %46, %43
  %49 = phi i64 [ %45, %43 ], [ %47, %46 ]
  store i64 %49, ptr %6, align 8, !tbaa !83
  call void @llvm.lifetime.start.p0(i64 8, ptr %7) #12
  %50 = getelementptr inbounds nuw %class.Array.5, ptr %8, i32 0, i32 0
  %51 = load ptr, ptr %50, align 8, !tbaa !89
  %52 = load i64, ptr %6, align 8, !tbaa !83
  %53 = mul i64 %52, 4
  %54 = call ptr @realloc(ptr noundef %51, i64 noundef %53) #16
  store ptr %54, ptr %7, align 8, !tbaa !90
  %55 = load ptr, ptr %7, align 8, !tbaa !90
  %56 = icmp eq ptr %55, null
  br i1 %56, label %57, label %58

57:                                               ; preds = %48
  call void @_ZN12ErrorHandler11MemoryErrorEv(ptr noundef nonnull align 4 dereferenceable(14) @ErrHandler)
  br label %58

58:                                               ; preds = %57, %48
  %59 = load ptr, ptr %7, align 8, !tbaa !90
  %60 = getelementptr inbounds nuw %class.Array.5, ptr %8, i32 0, i32 0
  store ptr %59, ptr %60, align 8, !tbaa !89
  %61 = load i64, ptr %6, align 8, !tbaa !83
  %62 = getelementptr inbounds nuw %class.Array.5, ptr %8, i32 0, i32 2
  store i64 %61, ptr %62, align 8, !tbaa !87
  call void @llvm.lifetime.end.p0(i64 8, ptr %7) #12
  call void @llvm.lifetime.end.p0(i64 8, ptr %6) #12
  call void @llvm.lifetime.end.p0(i64 8, ptr %5) #12
  br label %63

63:                                               ; preds = %58, %2
  ret void
}

; Function Attrs: mustprogress uwtable
define linkonce_odr void @_Z5uiMsgIJRA2048_wEEv14UIMESSAGE_CODEDpOT_(i32 noundef %0, ptr noundef nonnull align 4 dereferenceable(8192) %1) #0 comdat {
  %3 = alloca i32, align 4
  %4 = alloca ptr, align 8
  %5 = alloca %class.uiMsgStore, align 8
  store i32 %0, ptr %3, align 4, !tbaa !67
  store ptr %1, ptr %4, align 8, !tbaa !53
  call void @llvm.lifetime.start.p0(i64 112, ptr %5) #12
  %6 = load i32, ptr %3, align 4, !tbaa !67
  call void @_ZN10uiMsgStoreC2E14UIMESSAGE_CODE(ptr noundef nonnull align 8 dereferenceable(108) %5, i32 noundef %6)
  %7 = load ptr, ptr %4, align 8, !tbaa !53
  call void @_Z9uiMsgBaseIRA2048_wJEEvR10uiMsgStoreOT_DpOT0_(ptr noundef nonnull align 8 dereferenceable(108) %5, ptr noundef nonnull align 4 dereferenceable(8192) %7)
  call void @_ZN10uiMsgStore3MsgEv(ptr noundef nonnull align 8 dereferenceable(108) %5)
  call void @llvm.lifetime.end.p0(i64 112, ptr %5) #12
  ret void
}

; Function Attrs: mustprogress uwtable
define linkonce_odr void @_ZN5ArrayIjE4PushEj(ptr noundef nonnull align 8 dereferenceable(32) %0, i32 noundef %1) #0 comdat align 2 {
  %3 = alloca ptr, align 8
  %4 = alloca i32, align 4
  store ptr %0, ptr %3, align 8, !tbaa !69
  store i32 %1, ptr %4, align 4, !tbaa !40
  %5 = load ptr, ptr %3, align 8
  call void @_ZN5ArrayIjE3AddEm(ptr noundef nonnull align 8 dereferenceable(32) %5, i64 noundef 1)
  %6 = load i32, ptr %4, align 4, !tbaa !40
  %7 = call noundef i64 @_ZN5ArrayIjE4SizeEv(ptr noundef nonnull align 8 dereferenceable(32) %5)
  %8 = sub i64 %7, 1
  %9 = call noundef nonnull align 4 dereferenceable(4) ptr @_ZNK5ArrayIjEixEm(ptr noundef nonnull align 8 dereferenceable(32) %5, i64 noundef %8)
  store i32 %6, ptr %9, align 4, !tbaa !40
  ret void
}

; Function Attrs: mustprogress uwtable
define void @_ZN8ScanTree9ScanErrorERb(ptr noundef nonnull align 8 dereferenceable(33216) %0, ptr noundef nonnull align 1 dereferenceable(1) %1) #0 align 2 {
  %3 = alloca ptr, align 8
  %4 = alloca ptr, align 8
  %5 = alloca [2048 x i32], align 16
  store ptr %0, ptr %3, align 8, !tbaa !3
  store ptr %1, ptr %4, align 8, !tbaa !65
  %6 = load ptr, ptr %3, align 8
  %7 = load ptr, ptr %4, align 8, !tbaa !65
  %8 = load i8, ptr %7, align 1, !tbaa !12, !range !26, !noundef !27
  %9 = trunc i8 %8 to i1
  br i1 %9, label %10, label %22

10:                                               ; preds = %2
  %11 = getelementptr inbounds nuw %class.ScanTree, ptr %6, i32 0, i32 19
  %12 = load ptr, ptr %11, align 8, !tbaa !37
  %13 = icmp ne ptr %12, null
  br i1 %13, label %14, label %22

14:                                               ; preds = %10
  %15 = getelementptr inbounds nuw %class.ScanTree, ptr %6, i32 0, i32 19
  %16 = load ptr, ptr %15, align 8, !tbaa !37
  %17 = getelementptr inbounds nuw %class.ScanTree, ptr %6, i32 0, i32 9
  %18 = getelementptr inbounds [2048 x i32], ptr %17, i64 0, i64 0
  %19 = call noundef zeroext i1 @_ZN11CommandData9ExclCheckEPKwbbb(ptr noundef nonnull align 8 dereferenceable(100904) %16, ptr noundef %18, i1 noundef zeroext false, i1 noundef zeroext true, i1 noundef zeroext true)
  br i1 %19, label %20, label %22

20:                                               ; preds = %14
  %21 = load ptr, ptr %4, align 8, !tbaa !65
  store i8 0, ptr %21, align 1, !tbaa !12
  br label %22

22:                                               ; preds = %20, %14, %10, %2
  %23 = load ptr, ptr %4, align 8, !tbaa !65
  %24 = load i8, ptr %23, align 1, !tbaa !12, !range !26, !noundef !27
  %25 = trunc i8 %24 to i1
  br i1 %25, label %26, label %49

26:                                               ; preds = %22
  %27 = getelementptr inbounds nuw %class.ScanTree, ptr %6, i32 0, i32 13
  %28 = load ptr, ptr %27, align 8, !tbaa !38
  %29 = icmp ne ptr %28, null
  br i1 %29, label %30, label %35

30:                                               ; preds = %26
  %31 = getelementptr inbounds nuw %class.ScanTree, ptr %6, i32 0, i32 13
  %32 = load ptr, ptr %31, align 8, !tbaa !38
  %33 = getelementptr inbounds nuw %class.ScanTree, ptr %6, i32 0, i32 9
  %34 = getelementptr inbounds [2048 x i32], ptr %33, i64 0, i64 0
  call void @_ZN10StringList9AddStringEPKw(ptr noundef nonnull align 8 dereferenceable(184) %32, ptr noundef %34)
  br label %35

35:                                               ; preds = %30, %26
  %36 = getelementptr inbounds nuw %class.ScanTree, ptr %6, i32 0, i32 14
  %37 = load ptr, ptr %36, align 8, !tbaa !39
  %38 = icmp ne ptr %37, null
  br i1 %38, label %39, label %45

39:                                               ; preds = %35
  %40 = getelementptr inbounds nuw %class.ScanTree, ptr %6, i32 0, i32 14
  %41 = load ptr, ptr %40, align 8, !tbaa !39
  %42 = getelementptr inbounds nuw %class.ScanTree, ptr %6, i32 0, i32 17
  %43 = load i64, ptr %42, align 8, !tbaa !54
  %44 = trunc i64 %43 to i32
  call void @_ZN5ArrayIjE4PushEj(ptr noundef nonnull align 8 dereferenceable(32) %41, i32 noundef %44)
  br label %45

45:                                               ; preds = %39, %35
  call void @llvm.lifetime.start.p0(i64 8192, ptr %5) #12
  %46 = getelementptr inbounds nuw %class.ScanTree, ptr %6, i32 0, i32 9
  %47 = getelementptr inbounds [2048 x i32], ptr %46, i64 0, i64 0
  %48 = getelementptr inbounds [2048 x i32], ptr %5, i64 0, i64 0
  call void @_Z17ConvertNameToFullPKwPwm(ptr noundef %47, ptr noundef %48, i64 noundef 2048)
  call void @_Z5uiMsgIJRA2048_wEEv14UIMESSAGE_CODEDpOT_(i32 noundef 87, ptr noundef nonnull align 4 dereferenceable(8192) %5)
  call void @_ZN12ErrorHandler9SysErrMsgEv(ptr noundef nonnull align 4 dereferenceable(14) @ErrHandler)
  call void @llvm.lifetime.end.p0(i64 8192, ptr %5) #12
  br label %49

49:                                               ; preds = %45, %22
  ret void
}