; Function Attrs: mustprogress uwtable
define void @_ZN8ScanTree9ScanErrorERb(ptr noundef nonnull align 8 dereferenceable(33216) %0, ptr noundef nonnull align 1 captures(none) dereferenceable(1) %1) local_unnamed_addr #0 align 2 {
  %3 = alloca %class.uiMsgStore, align 8
  %4 = alloca [2048 x i32], align 16
  %5 = load i8, ptr %1, align 1, !tbaa !45, !range !37, !noundef !38
  %6 = trunc nuw i8 %5 to i1
  br i1 %6, label %7, label %.thread

7:                                                ; preds = %2
  %8 = getelementptr inbounds nuw i8, ptr %0, i64 33208
  %9 = load ptr, ptr %8, align 8, !tbaa !26
  %.not = icmp eq ptr %9, null
  br i1 %.not, label %.thread8, label %10

10:                                               ; preds = %7
  %11 = getelementptr inbounds nuw i8, ptr %0, i64 8228
  %12 = tail call noundef zeroext i1 @_ZN11CommandData9ExclCheckEPKwbbb(ptr noundef nonnull align 8 dereferenceable(100904) %9, ptr noundef nonnull %11, i1 noundef zeroext false, i1 noundef zeroext true, i1 noundef zeroext true)
  br i1 %12, label %13, label %14

13:                                               ; preds = %10
  store i8 0, ptr %1, align 1, !tbaa !45
  br label %.thread

14:                                               ; preds = %10
  %.pre = load i8, ptr %1, align 1, !tbaa !45, !range !37
  %15 = trunc nuw i8 %.pre to i1
  br i1 %15, label %.thread8, label %.thread

.thread8:                                         ; preds = %7, %14
  %16 = getelementptr inbounds nuw i8, ptr %0, i64 24984
  %17 = load ptr, ptr %16, align 8, !tbaa !59
  %.not6 = icmp eq ptr %17, null
  br i1 %.not6, label %20, label %18

18:                                               ; preds = %.thread8
  %19 = getelementptr inbounds nuw i8, ptr %0, i64 8228
  tail call void @_ZN10StringList9AddStringEPKw(ptr noundef nonnull align 8 dereferenceable(184) %17, ptr noundef nonnull %19)
  br label %20

20:                                               ; preds = %18, %.thread8
  %21 = getelementptr inbounds nuw i8, ptr %0, i64 24992
  %22 = load ptr, ptr %21, align 8, !tbaa !60
  %.not7 = icmp eq ptr %22, null
  br i1 %.not7, label %54, label %23

23:                                               ; preds = %20
  %24 = getelementptr inbounds nuw i8, ptr %0, i64 25008
  %25 = load i64, ptr %24, align 8, !tbaa !40
  %26 = trunc i64 %25 to i32
  %27 = getelementptr inbounds nuw i8, ptr %22, i64 8
  %28 = load i64, ptr %27, align 8, !tbaa !61
  %29 = add i64 %28, 1
  store i64 %29, ptr %27, align 8, !tbaa !61
  %30 = getelementptr inbounds nuw i8, ptr %22, i64 16
  %31 = load i64, ptr %30, align 8, !tbaa !64
  %32 = icmp ugt i64 %29, %31
  br i1 %32, label %33, label %._ZN5ArrayIjE3AddEm.exit_crit_edge.i

._ZN5ArrayIjE3AddEm.exit_crit_edge.i:             ; preds = %23
  %.pre1.i = load ptr, ptr %22, align 8, !tbaa !65
  br label %_ZN5ArrayIjE4PushEj.exit

33:                                               ; preds = %23
  %34 = getelementptr inbounds nuw i8, ptr %22, i64 24
  %35 = load i64, ptr %34, align 8, !tbaa !66
  %.not.i.i = icmp ne i64 %35, 0
  %36 = icmp ugt i64 %29, %35
  %or.cond.i.i = and i1 %.not.i.i, %36
  br i1 %or.cond.i.i, label %37, label %38

37:                                               ; preds = %33
  tail call void (ptr, ptr, ...) @_ZN12ErrorHandler13GeneralErrMsgEPKwz(ptr noundef nonnull align 4 dereferenceable(14) @ErrHandler, ptr noundef nonnull @.str.4, i64 noundef %35)
  tail call void @_ZN12ErrorHandler11MemoryErrorEv(ptr noundef nonnull align 4 dereferenceable(14) @ErrHandler)
  %.pre.i.i = load i64, ptr %30, align 8, !tbaa !64
  %.pre10.i.i = load i64, ptr %27, align 8, !tbaa !61
  br label %38

38:                                               ; preds = %37, %33
  %39 = phi i64 [ %.pre10.i.i, %37 ], [ %29, %33 ]
  %40 = phi i64 [ %.pre.i.i, %37 ], [ %31, %33 ]
  %41 = lshr i64 %40, 2
  %42 = add i64 %40, 32
  %43 = add i64 %42, %41
  %..i.i = tail call i64 @llvm.umax.i64(i64 %39, i64 %43)
  %44 = load ptr, ptr %22, align 8, !tbaa !65
  %45 = shl i64 %..i.i, 2
  %46 = tail call ptr @realloc(ptr noundef %44, i64 noundef %45) #17
  %47 = icmp eq ptr %46, null
  br i1 %47, label %48, label %49

48:                                               ; preds = %38
  tail call void @_ZN12ErrorHandler11MemoryErrorEv(ptr noundef nonnull align 4 dereferenceable(14) @ErrHandler)
  br label %49

49:                                               ; preds = %48, %38
  store ptr %46, ptr %22, align 8, !tbaa !65
  store i64 %..i.i, ptr %30, align 8, !tbaa !64
  %.pre.i = load i64, ptr %27, align 8, !tbaa !61
  br label %_ZN5ArrayIjE4PushEj.exit

_ZN5ArrayIjE4PushEj.exit:                         ; preds = %._ZN5ArrayIjE3AddEm.exit_crit_edge.i, %49
  %50 = phi ptr [ %.pre1.i, %._ZN5ArrayIjE3AddEm.exit_crit_edge.i ], [ %46, %49 ]
  %51 = phi i64 [ %29, %._ZN5ArrayIjE3AddEm.exit_crit_edge.i ], [ %.pre.i, %49 ]
  %52 = getelementptr i32, ptr %50, i64 %51
  %53 = getelementptr i8, ptr %52, i64 -4
  store i32 %26, ptr %53, align 4, !tbaa !67
  br label %54

54:                                               ; preds = %_ZN5ArrayIjE4PushEj.exit, %20
  call void @llvm.lifetime.start.p0(i64 8192, ptr nonnull %4) #13
  %55 = getelementptr inbounds nuw i8, ptr %0, i64 8228
  call void @_Z17ConvertNameToFullPKwPwm(ptr noundef nonnull %55, ptr noundef nonnull %4, i64 noundef 2048)
  call void @llvm.lifetime.start.p0(i64 112, ptr nonnull %3) #13
  br label %56

56:                                               ; preds = %56, %54
  %indvars.iv.i.i = phi i64 [ 0, %54 ], [ %indvars.iv.next.i.i, %56 ]
  %57 = getelementptr inbounds nuw [8 x ptr], ptr %3, i64 0, i64 %indvars.iv.i.i
  store ptr @.str.3, ptr %57, align 8, !tbaa !50
  %indvars.iv.next.i.i = add nuw nsw i64 %indvars.iv.i.i, 1
  %exitcond.not.i.i = icmp eq i64 %indvars.iv.next.i.i, 8
  br i1 %exitcond.not.i.i, label %_Z5uiMsgIJRA2048_wEEv14UIMESSAGE_CODEDpOT_.exit, label %56, !llvm.loop !51

_Z5uiMsgIJRA2048_wEEv14UIMESSAGE_CODEDpOT_.exit:  ; preds = %56
  %58 = getelementptr inbounds nuw i8, ptr %3, i64 64
  %59 = getelementptr inbounds nuw i8, ptr %3, i64 104
  call void @llvm.memset.p0.i64(ptr noundef nonnull align 8 dereferenceable(40) %58, i8 0, i64 40, i1 false)
  store i32 87, ptr %59, align 8, !tbaa !52
  %60 = getelementptr inbounds nuw i8, ptr %3, i64 96
  store i32 1, ptr %60, align 8, !tbaa !55
  store ptr %4, ptr %3, align 8, !tbaa !50
  call void @_ZN10uiMsgStore3MsgEv(ptr noundef nonnull align 8 dereferenceable(108) %3)
  call void @llvm.lifetime.end.p0(i64 112, ptr nonnull %3) #13
  call void @_ZN12ErrorHandler9SysErrMsgEv(ptr noundef nonnull align 4 dereferenceable(14) @ErrHandler)
  call void @llvm.lifetime.end.p0(i64 8192, ptr nonnull %4) #13
  br label %.thread

.thread:                                          ; preds = %2, %13, %_Z5uiMsgIJRA2048_wEEv14UIMESSAGE_CODEDpOT_.exit, %14
  ret void
}